target datalayout = "e-m:e-p270:32:32-p271:32:32-p272:64:64-i64:64-i128:128-f80:128-n8:16:32:64-S128"
target triple = "x86_64-pc-linux-gnu"

%struct._GdkRGBA = type { double, double, double, double }
%struct.darktable_t = type { %struct.dt_codepath_t, i32, i32, ptr, ptr, ptr, ptr, ptr, ptr, ptr, ptr, ptr, ptr, ptr, ptr, ptr, ptr, ptr, ptr, ptr, ptr, ptr, ptr, ptr, ptr, ptr, ptr, ptr, ptr, ptr, [64 x %struct.dt_pthread_mutex_t], %struct.dt_pthread_mutex_t, %struct.dt_pthread_mutex_t, %struct.dt_pthread_mutex_t, %struct.dt_pthread_mutex_t, %struct.dt_pthread_mutex_t, ptr, ptr, ptr, ptr, ptr, ptr, ptr, ptr, ptr, ptr, ptr, ptr, ptr, %struct.dt_lua_state_t, ptr, double, ptr, i32, [47 x i32], i32, i32, ptr, ptr, %struct.dt_sys_resources_t, %struct.dt_backthumb_t, %struct.dt_gimp_t }
%struct.dt_codepath_t = type { i8, [3 x i8] }
%struct.dt_pthread_mutex_t = type { %union.pthread_mutex_t }
%union.pthread_mutex_t = type { %struct.__pthread_mutex_s }
%struct.__pthread_mutex_s = type { i32, i32, i32, i32, i32, i16, i16, %struct.__pthread_internal_list }
%struct.__pthread_internal_list = type { ptr, ptr }
%struct.dt_lua_state_t = type { i32 }
%struct.dt_sys_resources_t = type { i64, i64, ptr, ptr, i32 }
%struct.dt_backthumb_t = type { double, double, i32, i32, i32, i32 }
%struct.dt_gimp_t = type { i32, ptr, ptr, i32, i32 }
%struct.dt_iop_module_t = type { i32, ptr, ptr, ptr, ptr, ptr, ptr, ptr, ptr, ptr, ptr, ptr, ptr, ptr, ptr, ptr, ptr, ptr, ptr, ptr, ptr, ptr, ptr, ptr, ptr, ptr, ptr, ptr, ptr, ptr, ptr, ptr, ptr, ptr, ptr, ptr, ptr, ptr, ptr, ptr, ptr, ptr, ptr, ptr, ptr, ptr, ptr, ptr, ptr, ptr, ptr, ptr, ptr, ptr, ptr, ptr, ptr, [20 x i8], i32, i32, i32, i32, i32, i32, i32, [8 x i8], [4 x float], [4 x float], [4 x float], [4 x float], [4 x float], [4 x float], ptr, %struct.dt_dev_histogram_stats_t, [4 x i32], i32, i32, ptr, i32, i32, ptr, ptr, i32, ptr, %struct.dt_pthread_mutex_t, ptr, ptr, ptr, ptr, %struct.anon, ptr, ptr, ptr, ptr, ptr, ptr, ptr, i32, ptr, ptr, ptr, ptr, ptr, ptr, ptr, i32, ptr, i32, [128 x i8], i32, ptr, ptr, i32, [12 x i8] }
%struct.dt_dev_histogram_stats_t = type { i32, i64, i32, i32 }
%struct.anon = type { %struct.anon.0, %struct.anon.1 }
%struct.anon.0 = type { ptr, ptr }
%struct.anon.1 = type { ptr, i32 }
%struct.dt_iop_gui_blend_data_t = type { i32, i32, i32, i32, i32, i32, i32, ptr, ptr, ptr, ptr, ptr, ptr, ptr, ptr, ptr, ptr, ptr, ptr, ptr, [2 x %struct.dt_iop_gui_blendif_filter_t], ptr, ptr, ptr, ptr, ptr, ptr, ptr, ptr, ptr, ptr, ptr, ptr, i32, i32, ptr, i32, [8 x [2 x i32]], i32, i32, ptr, i32, ptr, ptr, ptr, [5 x ptr], [5 x i32], ptr, ptr, ptr, i32, ptr, ptr, i32, %struct.dt_pthread_mutex_t }
%struct.dt_iop_gui_blendif_filter_t = type { ptr, ptr, [4 x ptr], ptr, ptr, ptr }
%struct.dt_gui_gtk_t = type { ptr, %struct.dt_gui_widgets_t, %struct.dt_gui_scrollbars_t, i32, ptr, i32, [39 x %struct._GdkRGBA], i32, i32, i32, i32, i32, double, double, double, double, ptr, double, double, double, double, i32, i32, [4096 x i8], i32, i32, i32, %struct.dt_pthread_mutex_t }
%struct.dt_gui_widgets_t = type { ptr, ptr, ptr, ptr, i32, i32, i32 }
%struct.dt_gui_scrollbars_t = type { ptr, ptr, i32 }

@darktable = external global %struct.darktable_t, align 8

; Function Attrs: inlinehint nounwind uwtable
define internal i32 @dt_pthread_mutex_unlock(ptr noundef %0) #3 {
  %2 = alloca ptr, align 8
  store ptr %0, ptr %2, align 8, !tbaa !138
  %3 = load ptr, ptr %2, align 8, !tbaa !138
  %4 = getelementptr inbounds nuw %struct.dt_pthread_mutex_t, ptr %3, i32 0, i32 0
  %5 = call i32 @pthread_mutex_unlock(ptr noundef %4) #11
  ret i32 %5
}

; Function Attrs: inlinehint nounwind uwtable
define internal i32 @dt_pthread_mutex_lock(ptr noundef %0) #3 {
  %2 = alloca ptr, align 8
  store ptr %0, ptr %2, align 8, !tbaa !138
  %3 = load ptr, ptr %2, align 8, !tbaa !138
  %4 = getelementptr inbounds nuw %struct.dt_pthread_mutex_t, ptr %3, i32 0, i32 0
  %5 = call i32 @pthread_mutex_lock(ptr noundef %4) #11
  ret i32 %5
}

; Function Attrs: nounwind uwtable
define internal i32 @_blendop_blendif_leave(ptr noundef %0, ptr noundef %1, ptr noundef %2) #0 {
  %4 = alloca i32, align 4
  %5 = alloca ptr, align 8
  %6 = alloca ptr, align 8
  %7 = alloca ptr, align 8
  %8 = alloca ptr, align 8
  store ptr %0, ptr %5, align 8, !tbaa !11
  store ptr %1, ptr %6, align 8, !tbaa !178
  store ptr %2, ptr %7, align 8, !tbaa !6
  %9 = load ptr, ptr getelementptr inbounds nuw (%struct.darktable_t, ptr @darktable, i32 0, i32 14), align 8, !tbaa !39
  %10 = getelementptr inbounds nuw %struct.dt_gui_gtk_t, ptr %9, i32 0, i32 5
  %11 = load i32, ptr %10, align 8, !tbaa !72
  %12 = icmp ne i32 %11, 0
  br i1 %12, label %13, label %14

13:                                               ; preds = %3
  store i32 0, ptr %4, align 4
  br label %49

14:                                               ; preds = %3
  call void @llvm.lifetime.start.p0(i64 8, ptr %8) #11
  %15 = load ptr, ptr %7, align 8, !tbaa !6
  %16 = getelementptr inbounds nuw %struct.dt_iop_module_t, ptr %15, i32 0, i32 88
  %17 = load ptr, ptr %16, align 8, !tbaa !15
  store ptr %17, ptr %8, align 8, !tbaa !31
  %18 = load ptr, ptr %8, align 8, !tbaa !31
  %19 = getelementptr inbounds nuw %struct.dt_iop_gui_blend_data_t, ptr %18, i32 0, i32 54
  %20 = call i32 @dt_pthread_mutex_lock(ptr noundef %19)
  %21 = load ptr, ptr %7, align 8, !tbaa !6
  %22 = getelementptr inbounds nuw %struct.dt_iop_module_t, ptr %21, i32 0, i32 63
  %23 = load i32, ptr %22, align 16, !tbaa !158
  %24 = and i32 %23, 65536
  %25 = icmp ne i32 %24, 0
  br i1 %25, label %45, label %26

26:                                               ; preds = %14
  %27 = load ptr, ptr %8, align 8, !tbaa !31
  %28 = getelementptr inbounds nuw %struct.dt_iop_gui_blend_data_t, ptr %27, i32 0, i32 39
  %29 = load i32, ptr %28, align 8, !tbaa !157
  %30 = icmp ne i32 %29, 0
  br i1 %30, label %45, label %31

31:                                               ; preds = %26
  %32 = load ptr, ptr %7, align 8, !tbaa !6
  %33 = getelementptr inbounds nuw %struct.dt_iop_module_t, ptr %32, i32 0, i32 63
  %34 = load i32, ptr %33, align 16, !tbaa !158
  %35 = load ptr, ptr %8, align 8, !tbaa !31
  %36 = getelementptr inbounds nuw %struct.dt_iop_gui_blend_data_t, ptr %35, i32 0, i32 38
  %37 = load i32, ptr %36, align 4, !tbaa !159
  %38 = and i32 %37, -65537
  %39 = icmp ne i32 %34, %38
  br i1 %39, label %40, label %45

40:                                               ; preds = %31
  %41 = load ptr, ptr %7, align 8, !tbaa !6
  %42 = call i32 @g_timeout_add(i32 noundef 1000, ptr noundef @_blendop_blendif_leave_delayed, ptr noundef %41)
  %43 = load ptr, ptr %8, align 8, !tbaa !31
  %44 = getelementptr inbounds nuw %struct.dt_iop_gui_blend_data_t, ptr %43, i32 0, i32 39
  store i32 %42, ptr %44, align 8, !tbaa !157
  br label %45

45:                                               ; preds = %40, %31, %26, %14
  %46 = load ptr, ptr %8, align 8, !tbaa !31
  %47 = getelementptr inbounds nuw %struct.dt_iop_gui_blend_data_t, ptr %46, i32 0, i32 54
  %48 = call i32 @dt_pthread_mutex_unlock(ptr noundef %47)
  store i32 0, ptr %4, align 4
  call void @llvm.lifetime.end.p0(i64 8, ptr %8) #11
  br label %49

49:                                               ; preds = %45, %13
  %50 = load i32, ptr %4, align 4
  ret i32 %50
}