; Function Attrs: nounwind uwtable
define internal noundef i32 @_blendop_blendif_leave(ptr readnone captures(none) %0, ptr readnone captures(none) %1, ptr noundef %2) #0 {
  %4 = load ptr, ptr getelementptr inbounds nuw (i8, ptr @darktable, i64 104), align 8, !tbaa !33
  %5 = getelementptr inbounds nuw i8, ptr %4, i64 96
  %6 = load i32, ptr %5, align 8, !tbaa !66
  %.not = icmp eq i32 %6, 0
  br i1 %.not, label %7, label %26

7:                                                ; preds = %3
  %8 = getelementptr inbounds nuw i8, ptr %2, i64 776
  %9 = load ptr, ptr %8, align 8, !tbaa !6
  %10 = getelementptr inbounds nuw i8, ptr %9, i64 632
  %11 = tail call i32 @pthread_mutex_lock(ptr noundef nonnull %10) #18
  %12 = getelementptr inbounds nuw i8, ptr %2, i64 496
  %13 = load i32, ptr %12, align 16, !tbaa !144
  %14 = and i32 %13, 65536
  %.not9 = icmp eq i32 %14, 0
  br i1 %.not9, label %15, label %24

15:                                               ; preds = %7
  %16 = getelementptr inbounds nuw i8, ptr %9, i64 464
  %17 = load i32, ptr %16, align 8, !tbaa !143
  %.not10 = icmp eq i32 %17, 0
  br i1 %.not10, label %18, label %24

18:                                               ; preds = %15
  %19 = getelementptr inbounds nuw i8, ptr %9, i64 460
  %20 = load i32, ptr %19, align 4, !tbaa !145
  %21 = and i32 %20, -65537
  %.not11 = icmp eq i32 %13, %21
  br i1 %.not11, label %24, label %22

22:                                               ; preds = %18
  %23 = tail call i32 @g_timeout_add(i32 noundef 1000, ptr noundef nonnull @_blendop_blendif_leave_delayed, ptr noundef nonnull %2) #18
  store i32 %23, ptr %16, align 8, !tbaa !143
  br label %24

24:                                               ; preds = %22, %18, %15, %7
  %25 = tail call i32 @pthread_mutex_unlock(ptr noundef nonnull %10) #18
  br label %26

26:                                               ; preds = %3, %24
  ret i32 0
}